target datalayout = "e-m:e-p270:32:32-p271:32:32-p272:64:64-i64:64-i128:128-f80:128-n8:16:32:64-S128"
target triple = "x86_64-pc-linux-gnu"

%struct._wsp_stats_t = type { ptr, ptr, i32, ptr }
%struct._wsp_status_code_t = type { ptr, i32 }
%struct._wsp_pdu_t = type { ptr, i32 }
%struct._wsp_info_value_t = type { i32, i8 }

; Function Attrs: nounwind null_pointer_is_valid sspstrong uwtable
define internal i32 @pdut2index(i32 noundef %0) #8 {
  %2 = alloca i32, align 4
  %3 = alloca i32, align 4
  store i32 %0, ptr %3, align 4
  %4 = load i32, ptr %3, align 4
  %5 = icmp sle i32 %4, 9
  br i1 %5, label %6, label %8

6:                                                ; preds = %1
  %7 = load i32, ptr %3, align 4
  store i32 %7, ptr %2, align 4
  br label %29

8:                                                ; preds = %1
  %9 = load i32, ptr %3, align 4
  %10 = icmp sge i32 %9, 64
  br i1 %10, label %11, label %28

11:                                               ; preds = %8
  %12 = load i32, ptr %3, align 4
  %13 = icmp sle i32 %12, 68
  br i1 %13, label %14, label %17

14:                                               ; preds = %11
  %15 = load i32, ptr %3, align 4
  %16 = sub i32 %15, 54
  store i32 %16, ptr %2, align 4
  br label %29

17:                                               ; preds = %11
  %18 = load i32, ptr %3, align 4
  %19 = icmp eq i32 %18, 96
  br i1 %19, label %23, label %20

20:                                               ; preds = %17
  %21 = load i32, ptr %3, align 4
  %22 = icmp eq i32 %21, 97
  br i1 %22, label %23, label %26

23:                                               ; preds = %20, %17
  %24 = load i32, ptr %3, align 4
  %25 = sub i32 %24, 81
  store i32 %25, ptr %2, align 4
  br label %29

26:                                               ; preds = %20
  br label %27

27:                                               ; preds = %26
  br label %28

28:                                               ; preds = %27, %8
  store i32 0, ptr %2, align 4
  br label %29

29:                                               ; preds = %28, %23, %14, %6
  %30 = load i32, ptr %2, align 4
  ret i32 %30
}

; Function Attrs: null_pointer_is_valid sspstrong uwtable
define internal i32 @wspstat_packet(ptr noundef %0, ptr noundef %1, ptr noundef %2, ptr noundef %3, i32 noundef %4) #0 {
  %6 = alloca ptr, align 8
  %7 = alloca ptr, align 8
  %8 = alloca ptr, align 8
  %9 = alloca ptr, align 8
  %10 = alloca i32, align 4
  %11 = alloca ptr, align 8
  %12 = alloca ptr, align 8
  %13 = alloca i32, align 4
  %14 = alloca i32, align 4
  %15 = alloca ptr, align 8
  %16 = alloca i64, align 8
  %17 = alloca i64, align 8
  %18 = alloca ptr, align 8
  %19 = alloca ptr, align 8
  store ptr %0, ptr %6, align 8
  store ptr %1, ptr %7, align 8
  store ptr %2, ptr %8, align 8
  store ptr %3, ptr %9, align 8
  store i32 %4, ptr %10, align 4
  call void @llvm.lifetime.start.p0(i64 8, ptr %11) #10
  %20 = load ptr, ptr %6, align 8
  store ptr %20, ptr %11, align 8
  call void @llvm.lifetime.start.p0(i64 8, ptr %12) #10
  %21 = load ptr, ptr %9, align 8
  store ptr %21, ptr %12, align 8
  call void @llvm.lifetime.start.p0(i64 4, ptr %13) #10
  %22 = load ptr, ptr %12, align 8
  %23 = getelementptr inbounds nuw %struct._wsp_info_value_t, ptr %22, i32 0, i32 1
  %24 = load i8, ptr %23, align 4
  %25 = zext i8 %24 to i32
  %26 = call i32 @pdut2index(i32 noundef %25)
  store i32 %26, ptr %13, align 4
  call void @llvm.lifetime.start.p0(i64 4, ptr %14) #10
  store i32 0, ptr %14, align 4
  %27 = load ptr, ptr %12, align 8
  %28 = getelementptr inbounds nuw %struct._wsp_info_value_t, ptr %27, i32 0, i32 0
  %29 = load i32, ptr %28, align 4
  %30 = icmp ne i32 %29, 0
  br i1 %30, label %31, label %93

31:                                               ; preds = %5
  call void @llvm.lifetime.start.p0(i64 8, ptr %15) #10
  %32 = load ptr, ptr %11, align 8
  %33 = getelementptr inbounds nuw %struct._wsp_stats_t, ptr %32, i32 0, i32 3
  %34 = load ptr, ptr %33, align 8
  %35 = load ptr, ptr %12, align 8
  %36 = getelementptr inbounds nuw %struct._wsp_info_value_t, ptr %35, i32 0, i32 0
  %37 = load i32, ptr %36, align 4
  %38 = sext i32 %37 to i64
  %39 = inttoptr i64 %38 to ptr
  %40 = call ptr @g_hash_table_lookup(ptr noundef %34, ptr noundef %39)
  store ptr %40, ptr %15, align 8
  %41 = load ptr, ptr %15, align 8
  %42 = icmp ne ptr %41, null
  br i1 %42, label %87, label %43

43:                                               ; preds = %31
  call void @llvm.lifetime.start.p0(i64 8, ptr %16) #10
  store i64 1, ptr %16, align 8
  call void @llvm.lifetime.start.p0(i64 8, ptr %17) #10
  store i64 16, ptr %17, align 8
  call void @llvm.lifetime.start.p0(i64 8, ptr %18) #10
  %44 = load i64, ptr %17, align 8
  %45 = icmp eq i64 %44, 1
  br i1 %45, label %46, label %49

46:                                               ; preds = %43
  %47 = load i64, ptr %16, align 8
  %48 = call noalias ptr @g_malloc(i64 noundef %47) #12
  store ptr %48, ptr %18, align 8
  br label %70

49:                                               ; preds = %43
  %50 = load i64, ptr %16, align 8
  %51 = call i1 @llvm.is.constant.i64(i64 %50)
  br i1 %51, label %52, label %65

52:                                               ; preds = %49
  %53 = load i64, ptr %17, align 8
  %54 = icmp eq i64 %53, 0
  br i1 %54, label %60, label %55

55:                                               ; preds = %52
  %56 = load i64, ptr %16, align 8
  %57 = load i64, ptr %17, align 8
  %58 = udiv i64 -1, %57
  %59 = icmp ule i64 %56, %58
  br i1 %59, label %60, label %65

60:                                               ; preds = %55, %52
  %61 = load i64, ptr %16, align 8
  %62 = load i64, ptr %17, align 8
  %63 = mul i64 %61, %62
  %64 = call noalias ptr @g_malloc(i64 noundef %63) #12
  store ptr %64, ptr %18, align 8
  br label %69

65:                                               ; preds = %55, %49
  %66 = load i64, ptr %16, align 8
  %67 = load i64, ptr %17, align 8
  %68 = call noalias ptr @g_malloc_n(i64 noundef %66, i64 noundef %67) #13
  store ptr %68, ptr %18, align 8
  br label %69

69:                                               ; preds = %65, %60
  br label %70

70:                                               ; preds = %69, %46
  %71 = load ptr, ptr %18, align 8
  store ptr %71, ptr %19, align 8
  call void @llvm.lifetime.end.p0(i64 8, ptr %18) #10
  call void @llvm.lifetime.end.p0(i64 8, ptr %17) #10
  call void @llvm.lifetime.end.p0(i64 8, ptr %16) #10
  %72 = load ptr, ptr %19, align 8
  store ptr %72, ptr %15, align 8
  %73 = load ptr, ptr %15, align 8
  %74 = getelementptr inbounds nuw %struct._wsp_status_code_t, ptr %73, i32 0, i32 1
  store i32 1, ptr %74, align 8
  %75 = load ptr, ptr %15, align 8
  %76 = getelementptr inbounds nuw %struct._wsp_status_code_t, ptr %75, i32 0, i32 0
  store ptr null, ptr %76, align 8
  %77 = load ptr, ptr %11, align 8
  %78 = getelementptr inbounds nuw %struct._wsp_stats_t, ptr %77, i32 0, i32 3
  %79 = load ptr, ptr %78, align 8
  %80 = load ptr, ptr %12, align 8
  %81 = getelementptr inbounds nuw %struct._wsp_info_value_t, ptr %80, i32 0, i32 0
  %82 = load i32, ptr %81, align 4
  %83 = sext i32 %82 to i64
  %84 = inttoptr i64 %83 to ptr
  %85 = load ptr, ptr %15, align 8
  %86 = call i32 @g_hash_table_insert(ptr noundef %79, ptr noundef %84, ptr noundef %85)
  br label %92

87:                                               ; preds = %31
  %88 = load ptr, ptr %15, align 8
  %89 = getelementptr inbounds nuw %struct._wsp_status_code_t, ptr %88, i32 0, i32 1
  %90 = load i32, ptr %89, align 8
  %91 = add i32 %90, 1
  store i32 %91, ptr %89, align 8
  br label %92

92:                                               ; preds = %87, %70
  store i32 1, ptr %14, align 4
  call void @llvm.lifetime.end.p0(i64 8, ptr %15) #10
  br label %93

93:                                               ; preds = %92, %5
  %94 = load i32, ptr %13, align 4
  %95 = icmp ne i32 %94, 0
  br i1 %95, label %96, label %106

96:                                               ; preds = %93
  %97 = load ptr, ptr %11, align 8
  %98 = getelementptr inbounds nuw %struct._wsp_stats_t, ptr %97, i32 0, i32 1
  %99 = load ptr, ptr %98, align 8
  %100 = load i32, ptr %13, align 4
  %101 = sext i32 %100 to i64
  %102 = getelementptr %struct._wsp_pdu_t, ptr %99, i64 %101
  %103 = getelementptr inbounds nuw %struct._wsp_pdu_t, ptr %102, i32 0, i32 1
  %104 = load i32, ptr %103, align 8
  %105 = add i32 %104, 1
  store i32 %105, ptr %103, align 8
  store i32 1, ptr %14, align 4
  br label %106

106:                                              ; preds = %96, %93
  %107 = load i32, ptr %14, align 4
  call void @llvm.lifetime.end.p0(i64 4, ptr %14) #10
  call void @llvm.lifetime.end.p0(i64 4, ptr %13) #10
  call void @llvm.lifetime.end.p0(i64 8, ptr %12) #10
  call void @llvm.lifetime.end.p0(i64 8, ptr %11) #10
  ret i32 %107
}