; Function Attrs: null_pointer_is_valid sspstrong uwtable
define internal range(i32 0, 2) i32 @wspstat_packet(ptr noundef readonly captures(none) %0, ptr readnone captures(none) %1, ptr readnone captures(none) %2, ptr noundef readonly captures(none) %3, i32 %4) #0 {
  %6 = getelementptr inbounds nuw i8, ptr %3, i64 4
  %7 = load i8, ptr %6, align 4
  %8 = zext i8 %7 to i32
  %9 = icmp ult i8 %7, 10
  br i1 %9, label %pdut2index.exit, label %10

10:                                               ; preds = %5
  %11 = icmp ugt i8 %7, 63
  br i1 %11, label %12, label %pdut2index.exit

12:                                               ; preds = %10
  %13 = icmp ult i8 %7, 69
  br i1 %13, label %14, label %16

14:                                               ; preds = %12
  %15 = add nsw i32 %8, -54
  br label %pdut2index.exit

16:                                               ; preds = %12
  %17 = and i32 %8, 254
  %or.cond.i = icmp eq i32 %17, 96
  %18 = add nsw i32 %8, -81
  %spec.select.i = select i1 %or.cond.i, i32 %18, i32 0
  br label %pdut2index.exit

pdut2index.exit:                                  ; preds = %5, %10, %14, %16
  %.0.i = phi i32 [ %15, %14 ], [ %8, %5 ], [ 0, %10 ], [ %spec.select.i, %16 ]
  %19 = load i32, ptr %3, align 4
  %.not = icmp eq i32 %19, 0
  br i1 %.not, label %38, label %20

20:                                               ; preds = %pdut2index.exit
  %21 = getelementptr inbounds nuw i8, ptr %0, i64 24
  %22 = load ptr, ptr %21, align 8
  %23 = sext i32 %19 to i64
  %24 = inttoptr i64 %23 to ptr
  %25 = tail call ptr @g_hash_table_lookup(ptr noundef %22, ptr noundef nonnull %24)
  %.not32 = icmp eq ptr %25, null
  br i1 %.not32, label %26, label %34

26:                                               ; preds = %20
  %27 = tail call noalias dereferenceable_or_null(16) ptr @g_malloc(i64 noundef 16) #8
  %28 = getelementptr inbounds nuw i8, ptr %27, i64 8
  store i32 1, ptr %28, align 8
  store ptr null, ptr %27, align 8
  %29 = load ptr, ptr %21, align 8
  %30 = load i32, ptr %3, align 4
  %31 = sext i32 %30 to i64
  %32 = inttoptr i64 %31 to ptr
  %33 = tail call i32 @g_hash_table_insert(ptr noundef %29, ptr noundef %32, ptr noundef %27)
  br label %38

34:                                               ; preds = %20
  %35 = getelementptr inbounds nuw i8, ptr %25, i64 8
  %36 = load i32, ptr %35, align 8
  %37 = add i32 %36, 1
  store i32 %37, ptr %35, align 8
  br label %38

38:                                               ; preds = %26, %34, %pdut2index.exit
  %.0 = phi i32 [ 0, %pdut2index.exit ], [ 1, %34 ], [ 1, %26 ]
  %.not33 = icmp eq i32 %.0.i, 0
  br i1 %.not33, label %46, label %39

39:                                               ; preds = %38
  %40 = getelementptr inbounds nuw i8, ptr %0, i64 8
  %41 = load ptr, ptr %40, align 8
  %42 = sext i32 %.0.i to i64
  %43 = getelementptr %struct._wsp_pdu_t, ptr %41, i64 %42, i32 1
  %44 = load i32, ptr %43, align 8
  %45 = add i32 %44, 1
  store i32 %45, ptr %43, align 8
  br label %46

46:                                               ; preds = %39, %38
  %.1 = phi i32 [ 1, %39 ], [ %.0, %38 ]
  ret i32 %.1
}